; Function Attrs: mustprogress uwtable
define void @_ZNK6casadi10MXFunction9print_argERSoxRKNS_7MXAlgElEPPKd(ptr noundef nonnull align 8 dereferenceable(1450) %0, ptr noundef nonnull align 8 dereferenceable(8) %1, i64 noundef %2, ptr noundef nonnull align 8 dereferenceable(64) %3, ptr nocapture noundef readonly %4) local_unnamed_addr #3 align 2 personality ptr @__gxx_personality_v0 {
  %6 = alloca %"class.std::__cxx11::basic_string", align 8
  %7 = getelementptr inbounds i8, ptr %0, i64 24
  %8 = tail call noundef nonnull align 8 dereferenceable(8) ptr @_ZStlsIcSt11char_traitsIcESaIcEERSt13basic_ostreamIT_T0_ES7_RKNSt7__cxx1112basic_stringIS4_S5_T1_EE(ptr noundef nonnull align 8 dereferenceable(8) %1, ptr noundef nonnull align 8 dereferenceable(32) %7)
  %9 = tail call noundef nonnull align 8 dereferenceable(8) ptr @_ZStlsISt11char_traitsIcEERSt13basic_ostreamIcT_ES5_PKc(ptr noundef nonnull align 8 dereferenceable(8) %8, ptr noundef nonnull @.str.47)
  %10 = tail call noundef nonnull align 8 dereferenceable(8) ptr @_ZNSolsEx(ptr noundef nonnull align 8 dereferenceable(8) %9, i64 noundef %2)
  %11 = tail call noundef nonnull align 8 dereferenceable(8) ptr @_ZStlsISt11char_traitsIcEERSt13basic_ostreamIcT_ES5_PKc(ptr noundef nonnull align 8 dereferenceable(8) %10, ptr noundef nonnull @.str.19)
  call void @_ZNK6casadi10MXFunction5printB5cxx11ERKNS_7MXAlgElE(ptr dead_on_unwind nonnull writable sret(%"class.std::__cxx11::basic_string") align 8 %6, ptr nonnull align 8 poison, ptr noundef nonnull align 8 dereferenceable(64) %3)
  %12 = invoke noundef nonnull align 8 dereferenceable(8) ptr @_ZStlsIcSt11char_traitsIcESaIcEERSt13basic_ostreamIT_T0_ES7_RKNSt7__cxx1112basic_stringIS4_S5_T1_EE(ptr noundef nonnull align 8 dereferenceable(8) %11, ptr noundef nonnull align 8 dereferenceable(32) %6)
          to label %13 unwind label %49

13:                                               ; preds = %5
  %14 = invoke noundef nonnull align 8 dereferenceable(8) ptr @_ZStlsISt11char_traitsIcEERSt13basic_ostreamIcT_ES5_PKc(ptr noundef nonnull align 8 dereferenceable(8) %12, ptr noundef nonnull @.str.48)
          to label %15 unwind label %49

15:                                               ; preds = %13
  %16 = invoke noundef nonnull align 8 dereferenceable(8) ptr @_ZNSolsEPFRSoS_E(ptr noundef nonnull align 8 dereferenceable(8) %14, ptr noundef nonnull @_ZSt4endlIcSt11char_traitsIcEERSt13basic_ostreamIT_T0_ES6_)
          to label %17 unwind label %49

17:                                               ; preds = %15
  call void @_ZNSt7__cxx1112basic_stringIcSt11char_traitsIcESaIcEED1Ev(ptr noundef nonnull align 8 dereferenceable(32) %6) #23
  %18 = getelementptr inbounds i8, ptr %3, i64 16
  %19 = getelementptr inbounds i8, ptr %3, i64 24
  %20 = load ptr, ptr %19, align 8
  %21 = load ptr, ptr %18, align 8
  %.not = icmp eq ptr %20, %21
  br i1 %.not, label %._crit_edge, label %.lr.ph

.lr.ph:                                           ; preds = %17
  %22 = getelementptr inbounds i8, ptr %3, i64 8
  br label %23

23:                                               ; preds = %.lr.ph, %_ZNK6casadi6MXNode3depEx.exit
  %.017 = phi i64 [ 0, %.lr.ph ], [ %41, %_ZNK6casadi6MXNode3depEx.exit ]
  %24 = call noundef nonnull align 8 dereferenceable(8) ptr @_ZNSolsEm(ptr noundef nonnull align 8 dereferenceable(8) %1, i64 noundef %.017)
  %25 = call noundef nonnull align 8 dereferenceable(8) ptr @_ZStlsISt11char_traitsIcEERSt13basic_ostreamIcT_ES5_PKc(ptr noundef nonnull align 8 dereferenceable(8) %24, ptr noundef nonnull @.str.19)
  %26 = call noundef ptr @_ZNK6casadi2MXptEv(ptr noundef nonnull align 8 dereferenceable(8) %22)
  %27 = getelementptr inbounds i8, ptr %26, i64 32
  %28 = getelementptr inbounds i8, ptr %26, i64 40
  %29 = load ptr, ptr %28, align 8
  %30 = load ptr, ptr %27, align 8
  %31 = ptrtoint ptr %29 to i64
  %32 = ptrtoint ptr %30 to i64
  %33 = sub i64 %31, %32
  %34 = ashr exact i64 %33, 3
  %.not.i.i.i = icmp ugt i64 %34, %.017
  br i1 %.not.i.i.i, label %_ZNK6casadi6MXNode3depEx.exit, label %35

35:                                               ; preds = %23
  call void (ptr, ...) @_ZSt24__throw_out_of_range_fmtPKcz(ptr noundef nonnull @.str.218, i64 noundef %.017, i64 noundef %34) #24
  unreachable

_ZNK6casadi6MXNode3depEx.exit:                    ; preds = %23
  %36 = getelementptr inbounds %"class.casadi::MX", ptr %30, i64 %.017
  %37 = call noundef nonnull align 8 dereferenceable(8) ptr @_ZNK6casadi2MX8sparsityEv(ptr noundef nonnull align 8 dereferenceable(8) %36)
  %38 = getelementptr inbounds ptr, ptr %4, i64 %.017
  %39 = load ptr, ptr %38, align 8
  call void @_ZN6casadi6MatrixIdE13print_defaultERSoRKNS_8SparsityEPKdb(ptr noundef nonnull align 8 dereferenceable(8) %1, ptr noundef nonnull align 8 dereferenceable(8) %37, ptr noundef %39, i1 noundef zeroext true)
  %40 = call noundef nonnull align 8 dereferenceable(8) ptr @_ZNSolsEPFRSoS_E(ptr noundef nonnull align 8 dereferenceable(8) %1, ptr noundef nonnull @_ZSt4endlIcSt11char_traitsIcEERSt13basic_ostreamIT_T0_ES6_)
  %41 = add nuw i64 %.017, 1
  %42 = load ptr, ptr %19, align 8
  %43 = load ptr, ptr %18, align 8
  %44 = ptrtoint ptr %42 to i64
  %45 = ptrtoint ptr %43 to i64
  %46 = sub i64 %44, %45
  %47 = ashr exact i64 %46, 3
  %48 = icmp ult i64 %41, %47
  br i1 %48, label %23, label %._crit_edge, !llvm.loop !83

49:                                               ; preds = %15, %13, %5
  %50 = landingpad { ptr, i32 }
          cleanup
  call void @_ZNSt7__cxx1112basic_stringIcSt11char_traitsIcESaIcEED1Ev(ptr noundef nonnull align 8 dereferenceable(32) %6) #23
  resume { ptr, i32 } %50

._crit_edge:                                      ; preds = %_ZNK6casadi6MXNode3depEx.exit, %17
  ret void
}